-----BEGIN RSA PRIVATE KEY-----
Proc-Type: 4,ENCRYPTED
DEK-Info: AES-128-CBC,21F3816577B4DC2571336AF40329D934

pDZxHIxuLi4QSpnERHq5yREb5Yl/7SSJmpx7bgFRmvfVD79Kn9KPJ6eJDtzxF/To
KIknuGJEBzBLrS1QRamrP093WChOFt8ZHnmu1sgqBqMvVj77OW153cwPqLy3PZHF
sM1TdlC5bype7jUTz5GUVTsBDGFOOo+C6fT0MhQfIY61CbTvCAHmHj+7DDEo3Jwr
tfA6lcADowx+LiuElj2GsHvceGTQp6LexQI3SWC5xAE90DqtUY+YDpmIM4bvEckH
TJuI7H+/B9k7Rxbe9n+n5tegg+QAFdZ49hoFGSFlUoU+kdddlvLFmgkhjtCP0HwN
nm2ycPrgD5ZTIih0YBy1paZKupfZ2TegqCUuRPtCIj3NZqrfyZ8EQK5Kal1pU9/A
8Py+aqFB+6KSF61+IVDmlPevzAQwhTB+8bEqvPSSWa84xPjHUnOfpMWZpKlk21zF
gCodDPYmKZ7HFF7jhhE3bfBlTZL5BpornWaOj9mHLsK1AFDivTIVHxkLr8Af6WPT
OamyUiRfvWkYRsM+xQgAKU+kOkasPdq2HVvnVNyHquf3AvySK25A0IM1ZpwL3dP2
fuLFpxZauKtAwR+3uEBpnl6ZrHYxYJT2sSq28O9gdyvCulJImDgY1vy9y/+KLWXI
koBKuBpo7J0PGQcd4mMkJKpGfKTkqk+vLpnDtLhYYwA6b4Zb+DNrhTRhSkkfie2D
uzQOjlY7txu+PFrw8tA9ATJvwk8srok/cJFMQpRhyOSABwSrXTEw64cTkM3jUL7P
ydcdVSsr2/XZLZlQnHojn2n/vHIrXhRHv9NBsf0y5Gb4Hc6PMn5IwN2alSROQXAe
-----END RSA PRIVATE KEY-----
Certificate:
    Data:
        Version: 3 (0x2)
        Serial Number: 4096 (0x1000)
    Signature Algorithm: sha256WithRSAEncryption
        Issuer: C=US, ST=PA, L=State College, O=PSU, OU=CSE, CN=WILLIAM/emailAddress=wzs51@psu.edu
        Validity
            Not Before: Feb 11 01:11:15 2018 GMT
            Not After : Feb 11 01:11:15 2019 GMT
        Subject: C=US, ST=PA, L=State College, O=PSU, OU=CSE, CN=PKILabServer.com/emailAddress=wzs51@psu.edu
        Subject Public Key Info:
            Public Key Algorithm: rsaEncryption
                Public-Key: (1024 bit)
                Modulus:
                    00:b5:f1:c8:22:c3:5b:b9:fe:2d:ff:a2:f2:29:c2:
                    56:5d:ef:20:05:3e:18:a8:d8:3a:9f:32:54:a8:63:
                    31:8d:91:81:8f:38:58:a4:2f:e3:ba:31:7a:c2:23:
                    9e:2c:42:b5:88:b9:ba:16:82:12:9c:d2:0b:b6:5a:
                    3e:52:68:d3:2f:02:a9:cf:bb:2f:3a:f7:a0:c1:87:
                    81:32:37:4b:36:01:a9:0d:54:f3:6e:7c:82:fe:0d:
                    ab:dc:67:e7:e5:80:7d:e0:b6:0c:37:31:27:d9:be:
                    c9:a9:aa:ac:e6:b4:05:0e:ad:81:71:b1:c4:01:09:
                    24:fb:3a:75:cb:69:a8:ab:0f
                Exponent: 65537 (0x10001)
        X509v3 extensions:
            X509v3 Basic Constraints: 
                CA:FALSE
            Netscape Comment: 
                OpenSSL Generated Certificate
            X509v3 Subject Key Identifier: 
                52:7A:56:44:FD:F9:91:19:83:E8:FE:32:85:46:47:A4:F3:53:7E:67
            X509v3 Authority Key Identifier: 
                keyid:DC:D5:F9:B9:EC:8E:7C:E7:55:82:22:A5:0E:32:BF:01:DA:24:AF:B6

    Signature Algorithm: sha256WithRSAEncryption
         47:e1:d7:8b:e4:b2:93:3a:e2:0a:79:dc:90:ee:ac:18:c3:89:
         68:de:6c:7c:3b:71:af:1c:f5:c3:a6:51:d5:b8:76:7f:b0:46:
         70:7c:c5:ad:e1:d8:12:79:91:a1:99:c9:65:74:dc:98:49:7f:
         4c:fd:0d:1c:64:13:09:98:3a:46:2a:de:f5:af:1a:7f:8d:df:
         98:f8:bc:d4:3c:ed:98:35:3a:4b:b2:84:e9:18:79:aa:78:e7:
         d1:c8:e4:45:bb:df:1a:b4:2a:32:78:f8:75:e1:40:10:4e:d6:
         62:fb:da:15:44:87:1f:21:f8:8d:c1:51:9d:11:cb:ae:f5:86:
         09:f4:b2:9d:95:4f:62:92:82:a3:39:b1:d8:b6:9a:a7:35:7a:
         b6:b3:3b:0b:ad:fd:c9:76:29:32:0f:de:40:b6:bb:fe:b8:cb:
         51:19:3b:cd:23:be:25:b1:f2:fe:8c:b9:5f:28:8a:3e:9a:7b:
         be:b4:d7:c4:a0:bd:6e:3c:ef:4d:d4:c0:aa:80:d0:72:a1:1a:
         e8:e8:27:0d:53:f1:6b:da:73:55:e2:74:03:33:1c:14:19:50:
         4a:33:d9:93:9c:b2:f7:c0:f4:f0:25:1a:7a:af:c7:bd:14:54:
         f8:dc:2e:5d:b8:19:bd:ee:6d:34:56:b5:b3:ec:a6:14:9a:f8:
         61:82:00:d8
-----BEGIN CERTIFICATE-----
MIIDeTCCAmGgAwIBAgICEAAwDQYJKoZIhvcNAQELBQAwfjELMAkGA1UEBhMCVVMx
CzAJBgNVBAgMAlBBMRYwFAYDVQQHDA1TdGF0ZSBDb2xsZWdlMQwwCgYDVQQKDANQ
U1UxDDAKBgNVBAsMA0NTRTEQMA4GA1UEAwwHV0lMTElBTTEcMBoGCSqGSIb3DQEJ
ARYNd3pzNTFAcHN1LmVkdTAeFw0xODAyMTEwMTExMTVaFw0xOTAyMTEwMTExMTVa
MIGHMQswCQYDVQQGEwJVUzELMAkGA1UECAwCUEExFjAUBgNVBAcMDVN0YXRlIENv
bGxlZ2UxDDAKBgNVBAoMA1BTVTEMMAoGA1UECwwDQ1NFMRkwFwYDVQQDDBBQS0lM
YWJTZXJ2ZXIuY29tMRwwGgYJKoZIhvcNAQkBFg13enM1MUBwc3UuZWR1MIGfMA0G
CSqGSIb3DQEBAQUAA4GNADCBiQKBgQC18cgiw1u5/i3/ovIpwlZd7yAFPhio2Dqf
MlSoYzGNkYGPOFikL+O6MXrCI54sQrWIuboWghKc0gu2Wj5SaNMvAqnPuy8696DB
h4EyN0s2AakNVPNufIL+DavcZ+flgH3gtgw3MSfZvsmpqqzmtAUOrYFxscQBCST7
OnXLaairDwIDAQABo3sweTAJBgNVHRMEAjAAMCwGCWCGSAGG+EIBDQQfFh1PcGVu
U1NMIEdlbmVyYXRlZCBDZXJ0aWZpY2F0ZTAdBgNVHQ4EFgQUUnpWRP35kRmD6P4y
hUZHpPNTfmcwHwYDVR0jBBgwFoAU3NX5ueyOfOdVgiKlDjK/Adokr7YwDQYJKoZI
hvcNAQELBQADggEBAEfh14vkspM64gp53JDurBjDiWjebHw7ca8c9cOmUdW4dn+w
RnB8xa3h2BJ5kaGZyWV03JhJf0z9DRxkEwmYOkYq3vWvGn+N35j4vNQ87Zg1Okuy
hOkYeap459HI5EW73xq0KjJ4+HXhQBBO1mL72hVEhx8h+I3BUZ0Ry671hgn0sp2V
T2KSgqM5sdi2mqc1erazOwut/cl2KTIP3kC2u/64y1EZO80jviWx8v6MuV8oij6a
e76018SgvW48703UwKqA0HKhGujoJw1T8Wvac1XidAMzHBQZUEoz2ZOcsvfA9PAl
Gnqvx70UVPjcLl24Gb3ubTRWtbPsphSa+GGCANg=
-----END CERTIFICATE-----
